target datalayout = "e-m:e-p270:32:32-p271:32:32-p272:64:64-i64:64-i128:128-f80:128-n8:16:32:64-S128"
target triple = "x86_64-pc-linux-gnu"

%struct.Qureg = type { i32, i32, i32, i64, i64, i32, i32, %struct.ComplexArray, %struct.ComplexArray, %struct.ComplexArray, ptr, ptr, ptr, ptr, ptr, ptr }
%struct.ComplexArray = type { ptr, ptr }

@__func__.multiQubitNot = private unnamed_addr constant [14 x i8] c"multiQubitNot\00", align 1

; Function Attrs: nounwind uwtable
define void @multiQubitNot(ptr noundef byval(%struct.Qureg) align 8 %0, ptr noundef %1, i32 noundef %2) #0 {
  %4 = alloca ptr, align 8
  %5 = alloca i32, align 4
  %6 = alloca i64, align 8
  %7 = alloca i32, align 4
  store ptr %1, ptr %4, align 8, !tbaa !27
  store i32 %2, ptr %5, align 4, !tbaa !4
  %8 = load ptr, ptr %4, align 8, !tbaa !27
  %9 = load i32, ptr %5, align 4, !tbaa !4
  call void @validateMultiTargets(ptr noundef byval(%struct.Qureg) align 8 %0, ptr noundef %8, i32 noundef %9, ptr noundef @__func__.multiQubitNot)
  call void @llvm.lifetime.start.p0(i64 8, ptr %6) #7
  %10 = load ptr, ptr %4, align 8, !tbaa !27
  %11 = load i32, ptr %5, align 4, !tbaa !4
  %12 = call i64 @getQubitBitMask(ptr noundef %10, i32 noundef %11)
  store i64 %12, ptr %6, align 8, !tbaa !22
  %13 = load i64, ptr %6, align 8, !tbaa !22
  %14 = trunc i64 %13 to i32
  call void @statevec_multiControlledMultiQubitNot(ptr noundef byval(%struct.Qureg) align 8 %0, i32 noundef 0, i32 noundef %14)
  %15 = getelementptr inbounds nuw %struct.Qureg, ptr %0, i32 0, i32 0
  %16 = load i32, ptr %15, align 8, !tbaa !13
  %17 = icmp ne i32 %16, 0
  br i1 %17, label %18, label %26

18:                                               ; preds = %3
  call void @llvm.lifetime.start.p0(i64 4, ptr %7) #7
  %19 = getelementptr inbounds nuw %struct.Qureg, ptr %0, i32 0, i32 1
  %20 = load i32, ptr %19, align 4, !tbaa !18
  store i32 %20, ptr %7, align 4, !tbaa !4
  %21 = load i64, ptr %6, align 8, !tbaa !22
  %22 = load i32, ptr %7, align 4, !tbaa !4
  %23 = zext i32 %22 to i64
  %24 = shl i64 %21, %23
  %25 = trunc i64 %24 to i32
  call void @statevec_multiControlledMultiQubitNot(ptr noundef byval(%struct.Qureg) align 8 %0, i32 noundef 0, i32 noundef %25)
  call void @llvm.lifetime.end.p0(i64 4, ptr %7) #7
  br label %26

26:                                               ; preds = %18, %3
  %27 = load ptr, ptr %4, align 8, !tbaa !27
  %28 = load i32, ptr %5, align 4, !tbaa !4
  call void @qasm_recordMultiControlledMultiQubitNot(ptr noundef byval(%struct.Qureg) align 8 %0, ptr noundef null, i32 noundef 0, ptr noundef %27, i32 noundef %28)
  call void @llvm.lifetime.end.p0(i64 8, ptr %6) #7
  ret void
}