; Function Attrs: nounwind uwtable
define void @multiQubitNot(ptr noundef readonly byval(%struct.Qureg) align 8 captures(none) %0, ptr noundef %1, i32 noundef %2) local_unnamed_addr #0 {
  tail call void @validateMultiTargets(ptr noundef nonnull byval(%struct.Qureg) align 8 %0, ptr noundef %1, i32 noundef %2, ptr noundef nonnull @__func__.multiQubitNot) #17
  %4 = tail call i64 @getQubitBitMask(ptr noundef %1, i32 noundef %2) #17
  %5 = trunc i64 %4 to i32
  tail call void @statevec_multiControlledMultiQubitNot(ptr noundef nonnull byval(%struct.Qureg) align 8 %0, i32 noundef 0, i32 noundef %5) #17
  %6 = load i32, ptr %0, align 8, !tbaa !12
  %.not = icmp eq i32 %6, 0
  br i1 %.not, label %13, label %7

7:                                                ; preds = %3
  %8 = getelementptr inbounds nuw i8, ptr %0, i64 4
  %9 = load i32, ptr %8, align 4, !tbaa !17
  %10 = zext nneg i32 %9 to i64
  %11 = shl i64 %4, %10
  %12 = trunc i64 %11 to i32
  tail call void @statevec_multiControlledMultiQubitNot(ptr noundef nonnull byval(%struct.Qureg) align 8 %0, i32 noundef 0, i32 noundef %12) #17
  br label %13

13:                                               ; preds = %7, %3
  tail call void @qasm_recordMultiControlledMultiQubitNot(ptr noundef nonnull byval(%struct.Qureg) align 8 %0, ptr noundef null, i32 noundef 0, ptr noundef %1, i32 noundef %2) #17
  ret void
}